; Function Attrs: nounwind uwtable
define hidden range(i32 -2147483648, 16) i32 @Curl_socket_check(i32 noundef %0, i32 noundef %1, i32 noundef %2, i64 noundef %3) local_unnamed_addr #0 {
  %5 = alloca %struct.timeval, align 8
  %6 = alloca [3 x %struct.pollfd], align 16
  call void @llvm.lifetime.start.p0(i64 24, ptr nonnull %6) #10
  %7 = and i32 %1, %0
  %8 = and i32 %7, %2
  %or.cond3 = icmp eq i32 %8, -1
  br i1 %or.cond3, label %9, label %22

9:                                                ; preds = %4
  %.not.i = icmp eq i64 %3, 0
  br i1 %.not.i, label %Curl_wait_ms.exit, label %10

10:                                               ; preds = %9
  %11 = icmp slt i64 %3, 0
  br i1 %11, label %12, label %14

12:                                               ; preds = %10
  %13 = tail call ptr @__errno_location() #9
  store i32 22, ptr %13, align 4, !tbaa !3
  br label %Curl_wait_ms.exit

14:                                               ; preds = %10
  call void @llvm.lifetime.start.p0(i64 16, ptr nonnull %5) #10
  %15 = call ptr @curlx_mstotv(ptr noundef nonnull %5, i64 noundef %3) #10
  %16 = call i32 @select(i32 noundef 0, ptr noundef null, ptr noundef null, ptr noundef null, ptr noundef %15) #10
  call void @llvm.lifetime.end.p0(i64 16, ptr nonnull %5) #10
  switch i32 %16, label %21 [
    i32 0, label %Curl_wait_ms.exit
    i32 -1, label %17
  ]

17:                                               ; preds = %14
  %18 = tail call ptr @__errno_location() #9
  %19 = load i32, ptr %18, align 4, !tbaa !3
  %20 = icmp eq i32 %19, 4
  br i1 %20, label %Curl_wait_ms.exit, label %21

21:                                               ; preds = %17, %14
  br label %Curl_wait_ms.exit

22:                                               ; preds = %4
  %.not = icmp eq i32 %0, -1
  br i1 %.not, label %26, label %23

23:                                               ; preds = %22
  store i32 %0, ptr %6, align 16, !tbaa !7
  %24 = getelementptr inbounds nuw i8, ptr %6, i64 4
  store i16 195, ptr %24, align 4, !tbaa !10
  %25 = getelementptr inbounds nuw i8, ptr %6, i64 6
  store i16 0, ptr %25, align 2, !tbaa !11
  br label %26

26:                                               ; preds = %23, %22
  %.048 = phi i32 [ 1, %23 ], [ 0, %22 ]
  %.not58 = icmp eq i32 %1, -1
  br i1 %.not58, label %33, label %27

27:                                               ; preds = %26
  %28 = zext nneg i32 %.048 to i64
  %29 = getelementptr inbounds nuw [3 x %struct.pollfd], ptr %6, i64 0, i64 %28
  store i32 %1, ptr %29, align 8, !tbaa !7
  %30 = getelementptr inbounds nuw i8, ptr %29, i64 4
  store i16 195, ptr %30, align 4, !tbaa !10
  %31 = getelementptr inbounds nuw i8, ptr %29, i64 6
  store i16 0, ptr %31, align 2, !tbaa !11
  %32 = add nuw nsw i32 %.048, 1
  br label %33

33:                                               ; preds = %27, %26
  %.149 = phi i32 [ %32, %27 ], [ %.048, %26 ]
  %.not59 = icmp eq i32 %2, -1
  br i1 %.not59, label %40, label %34

34:                                               ; preds = %33
  %35 = zext nneg i32 %.149 to i64
  %36 = getelementptr inbounds nuw [3 x %struct.pollfd], ptr %6, i64 0, i64 %35
  store i32 %2, ptr %36, align 8, !tbaa !7
  %37 = getelementptr inbounds nuw i8, ptr %36, i64 4
  store i16 262, ptr %37, align 4, !tbaa !10
  %38 = getelementptr inbounds nuw i8, ptr %36, i64 6
  store i16 0, ptr %38, align 2, !tbaa !11
  %39 = add nuw nsw i32 %.149, 1
  br label %40

40:                                               ; preds = %34, %33
  %.250 = phi i32 [ %39, %34 ], [ %.149, %33 ]
  %41 = call i32 @Curl_poll(ptr noundef nonnull %6, i32 noundef %.250, i64 noundef %3)
  %42 = icmp slt i32 %41, 1
  br i1 %42, label %Curl_wait_ms.exit, label %43

43:                                               ; preds = %40
  br i1 %.not, label %50, label %44

44:                                               ; preds = %43
  %45 = getelementptr inbounds nuw i8, ptr %6, i64 6
  %46 = load i16, ptr %45, align 2, !tbaa !11
  %47 = and i16 %46, 89
  %.not60 = icmp ne i16 %47, 0
  %spec.select = zext i1 %.not60 to i32
  %48 = and i16 %46, 34
  %.not61 = icmp eq i16 %48, 0
  %49 = or disjoint i32 %spec.select, 4
  %.2 = select i1 %.not61, i32 %spec.select, i32 %49
  br label %50

50:                                               ; preds = %44, %43
  %.351 = phi i32 [ 1, %44 ], [ 0, %43 ]
  %.0 = phi i32 [ %.2, %44 ], [ 0, %43 ]
  br i1 %.not58, label %60, label %51

51:                                               ; preds = %50
  %52 = zext nneg i32 %.351 to i64
  %53 = getelementptr inbounds nuw [3 x %struct.pollfd], ptr %6, i64 0, i64 %52, i32 2
  %54 = load i16, ptr %53, align 2, !tbaa !11
  %55 = and i16 %54, 89
  %.not62 = icmp eq i16 %55, 0
  %56 = or i32 %.0, 8
  %spec.select66 = select i1 %.not62, i32 %.0, i32 %56
  %57 = and i16 %54, 34
  %.not63 = icmp eq i16 %57, 0
  %58 = or i32 %spec.select66, 4
  %.5 = select i1 %.not63, i32 %spec.select66, i32 %58
  %59 = add nuw nsw i32 %.351, 1
  br label %60

60:                                               ; preds = %51, %50
  %.452 = phi i32 [ %59, %51 ], [ %.351, %50 ]
  %.3 = phi i32 [ %.5, %51 ], [ %.0, %50 ]
  br i1 %.not59, label %Curl_wait_ms.exit, label %61

61:                                               ; preds = %60
  %62 = zext nneg i32 %.452 to i64
  %63 = getelementptr inbounds nuw [3 x %struct.pollfd], ptr %6, i64 0, i64 %62, i32 2
  %64 = load i16, ptr %63, align 2, !tbaa !11
  %65 = and i16 %64, 260
  %.not64 = icmp eq i16 %65, 0
  %66 = or i32 %.3, 2
  %spec.select67 = select i1 %.not64, i32 %.3, i32 %66
  %67 = and i16 %64, 58
  %.not65 = icmp eq i16 %67, 0
  %68 = or i32 %spec.select67, 4
  %spec.select68 = select i1 %.not65, i32 %spec.select67, i32 %68
  br label %Curl_wait_ms.exit

Curl_wait_ms.exit:                                ; preds = %21, %17, %14, %12, %9, %61, %60, %40
  %.053 = phi i32 [ %41, %40 ], [ %.3, %60 ], [ %spec.select68, %61 ], [ -1, %12 ], [ 0, %9 ], [ -1, %21 ], [ %16, %14 ], [ 0, %17 ]
  call void @llvm.lifetime.end.p0(i64 24, ptr nonnull %6) #10
  ret i32 %.053
}